; Function Attrs: nofree norecurse nosync nounwind memory(read, inaccessiblemem: none) uwtable
define hidden noundef zeroext i1 @mi_heap_check_owned(ptr noundef readonly %0, ptr noundef %1) local_unnamed_addr #3 {
  %3 = icmp eq ptr %0, null
  br i1 %3, label %mi_heap_visit_pages.exit, label %4

4:                                                ; preds = %2
  %5 = icmp ne ptr %0, @_mi_heap_empty
  %6 = ptrtoint ptr %1 to i64
  %7 = and i64 %6, 7
  %.not = icmp eq i64 %7, 0
  %or.cond = and i1 %5, %.not
  br i1 %or.cond, label %8, label %mi_heap_visit_pages.exit

8:                                                ; preds = %4
  %9 = getelementptr inbounds nuw i8, ptr %0, i64 192
  %10 = load i64, ptr %9, align 8, !tbaa !27
  %11 = icmp eq i64 %10, 0
  br i1 %11, label %mi_heap_visit_pages.exit, label %.preheader.i

.preheader.i:                                     ; preds = %8
  %12 = getelementptr inbounds nuw i8, ptr %0, i64 1264
  br label %13

13:                                               ; preds = %.critedge.i, %.preheader.i
  %.02229.i = phi i64 [ 0, %.preheader.i ], [ %27, %.critedge.i ]
  %14 = getelementptr inbounds nuw [75 x %struct.mi_page_queue_s], ptr %12, i64 0, i64 %.02229.i
  %.020.i11 = load ptr, ptr %14, align 8, !tbaa !59
  %.not.i12 = icmp eq ptr %.020.i11, null
  br i1 %.not.i12, label %.critedge.i, label %.lr.ph

15:                                               ; preds = %.lr.ph
  %16 = getelementptr inbounds nuw i8, ptr %.020.i13, i64 72
  %.020.i = load ptr, ptr %16, align 8, !tbaa !59
  %.not.i = icmp eq ptr %.020.i, null
  br i1 %.not.i, label %.critedge.i, label %.lr.ph, !llvm.loop !36

.lr.ph:                                           ; preds = %13, %15
  %.020.i13 = phi ptr [ %.020.i, %15 ], [ %.020.i11, %13 ]
  %17 = getelementptr i8, ptr %.020.i13, i64 48
  %.val11.i = load ptr, ptr %17, align 8, !tbaa !60
  %18 = getelementptr inbounds nuw i8, ptr %.020.i13, i64 10
  %19 = load i16, ptr %18, align 2, !tbaa !61
  %20 = zext i16 %19 to i64
  %21 = getelementptr i8, ptr %.020.i13, i64 40
  %.val.i = load i64, ptr %21, align 8, !tbaa !62
  %22 = mul i64 %.val.i, %20
  %23 = getelementptr inbounds nuw i8, ptr %.val11.i, i64 %22
  %24 = icmp uge ptr %1, %.val11.i
  %25 = icmp ult ptr %1, %23
  %26 = select i1 %24, i1 %25, i1 false
  br i1 %26, label %mi_heap_visit_pages.exit, label %15, !llvm.loop !36

.critedge.i:                                      ; preds = %15, %13
  %27 = add nuw nsw i64 %.02229.i, 1
  %exitcond.i = icmp eq i64 %27, 75
  br i1 %exitcond.i, label %mi_heap_visit_pages.exit, label %13, !llvm.loop !38

mi_heap_visit_pages.exit:                         ; preds = %.critedge.i, %.lr.ph, %8, %2, %4
  %.0 = phi i1 [ false, %4 ], [ false, %2 ], [ false, %8 ], [ true, %.lr.ph ], [ false, %.critedge.i ]
  ret i1 %.0
}